; Function Attrs: null_pointer_is_valid sspstrong uwtable
define internal noundef zeroext i1 @dissect_dcerpc_cn_pk(ptr noundef %0, ptr noundef %1, ptr noundef %2, ptr readnone captures(none) %3) #0 {
  %5 = getelementptr inbounds nuw i8, ptr %1, i64 408
  %6 = load ptr, ptr %5, align 8
  %7 = load i32, ptr @proto_dcerpc, align 4
  %8 = tail call ptr @p_get_proto_data(ptr noundef %6, ptr noundef %1, i32 noundef %7, i32 noundef 0)
  %9 = icmp eq ptr %8, null
  br i1 %9, label %10, label %dcerpc_get_decode_data.exit

10:                                               ; preds = %4
  %11 = load ptr, ptr %5, align 8
  %12 = tail call noalias dereferenceable_or_null(16) ptr @wmem_alloc0(ptr noundef %11, i64 noundef 16) #18
  %13 = getelementptr inbounds nuw i8, ptr %12, i64 4
  store i32 -1, ptr %13, align 4
  %14 = load ptr, ptr %5, align 8
  %15 = load i32, ptr @proto_dcerpc, align 4
  tail call void @p_add_proto_data(ptr noundef %14, ptr noundef %1, i32 noundef %15, i32 noundef 0, ptr noundef %12)
  br label %dcerpc_get_decode_data.exit

dcerpc_get_decode_data.exit:                      ; preds = %4, %10
  %.0.i = phi ptr [ %12, %10 ], [ %8, %4 ]
  %16 = getelementptr inbounds nuw i8, ptr %.0.i, i64 4
  store i32 0, ptr %16, align 4
  %17 = tail call fastcc zeroext i1 @dissect_dcerpc_cn(ptr noundef %0, i32 noundef 0, ptr noundef %1, ptr noundef %2, i1 noundef zeroext false, ptr noundef null)
  ret i1 %17
}